; Function Attrs: nounwind uwtable
define dso_local zeroext i1 @prep_g_required(i32 noundef %0) local_unnamed_addr #0 {
  %2 = tail call i32 @pthread_rwlock_rdlock(ptr noundef nonnull @g_context_lock) #9
  %.not = icmp eq i32 %2, 0
  br i1 %.not, label %5, label %3

3:                                                ; preds = %1
  %4 = tail call ptr @__errno_location() #10
  store i32 %2, ptr %4, align 4
  tail call void (ptr, ...) @fatal_abort(ptr noundef nonnull @.str.8, ptr noundef nonnull @__func__.prep_g_required) #11
  unreachable

5:                                                ; preds = %1
  %6 = zext i32 %0 to i64
  %7 = getelementptr inbounds nuw [5 x i8], ptr @prep_is_required, i64 0, i64 %6
  %8 = load i8, ptr %7, align 1, !range !11, !noundef !12
  %9 = tail call i32 @pthread_rwlock_unlock(ptr noundef nonnull @g_context_lock) #9
  %.not7 = icmp eq i32 %9, 0
  br i1 %.not7, label %12, label %10

10:                                               ; preds = %5
  %11 = tail call ptr @__errno_location() #10
  store i32 %9, ptr %11, align 4
  tail call void (ptr, ...) @fatal_abort(ptr noundef nonnull @.str.7, ptr noundef nonnull @__func__.prep_g_required) #11
  unreachable

12:                                               ; preds = %5
  %13 = trunc nuw i8 %8 to i1
  ret i1 %13
}